target datalayout = "e-m:e-p270:32:32-p271:32:32-p272:64:64-i64:64-i128:128-f80:128-n8:16:32:64-S128"
target triple = "x86_64-pc-linux-gnu"

%"struct.(anonymous namespace)::SynthEcp5Pass" = type <{ %"struct.Yosys::ScriptPass", %"class.std::__cxx11::basic_string", %"class.std::__cxx11::basic_string", %"class.std::__cxx11::basic_string", %"class.std::__cxx11::basic_string", i8, i8, i8, i8, i8, i8, i8, i8, i8, i8, i8, i8, i8, i8, i8, i8 }>
%"struct.Yosys::ScriptPass" = type { %"struct.Yosys::Pass", i8, i8, ptr, %"class.std::__cxx11::basic_string", %"class.std::__cxx11::basic_string" }
%"struct.Yosys::Pass" = type { ptr, %"class.std::__cxx11::basic_string", %"class.std::__cxx11::basic_string", i32, i64, i8, ptr }
%"class.std::__cxx11::basic_string" = type { %"struct.std::__cxx11::basic_string<char>::_Alloc_hider", i64, %union.anon }
%"struct.std::__cxx11::basic_string<char>::_Alloc_hider" = type { ptr }
%union.anon = type { i64, [8 x i8] }

@.str.54 = private unnamed_addr constant [10 x i8] c"-auto-top\00", align 1
@.str.55 = private unnamed_addr constant [1 x i8] zeroinitializer, align 1

; Function Attrs: mustprogress nounwind uwtable
define linkonce_odr noundef i64 @_ZNSt11char_traitsIcE6lengthEPKc(ptr noundef %0) #7 comdat align 2 {
  %2 = alloca ptr, align 8
  store ptr %0, ptr %2, align 8, !tbaa !17
  %3 = load ptr, ptr %2, align 8, !tbaa !17
  %4 = call i64 @strlen(ptr noundef %3) #3
  ret i64 %4
}

; Function Attrs: mustprogress nounwind uwtable
define available_externally noundef i64 @_ZNKSt7__cxx1112basic_stringIcSt11char_traitsIcESaIcEE4sizeEv(ptr noundef nonnull align 8 dereferenceable(32) %0) #7 align 2 {
  %2 = alloca ptr, align 8
  store ptr %0, ptr %2, align 8, !tbaa !15
  %3 = load ptr, ptr %2, align 8
  %4 = getelementptr inbounds nuw %"class.std::__cxx11::basic_string", ptr %3, i32 0, i32 1
  %5 = load i64, ptr %4, align 8, !tbaa !71
  ret i64 %5
}

; Function Attrs: mustprogress uwtable
define available_externally noundef nonnull align 8 dereferenceable(32) ptr @_ZNSt7__cxx1112basic_stringIcSt11char_traitsIcESaIcEE6assignEPKc(ptr noundef nonnull align 8 dereferenceable(32) %0, ptr noundef %1) #4 align 2 {
  %3 = alloca ptr, align 8
  %4 = alloca ptr, align 8
  store ptr %0, ptr %3, align 8, !tbaa !15
  store ptr %1, ptr %4, align 8, !tbaa !17
  %5 = load ptr, ptr %3, align 8
  %6 = call noundef i64 @_ZNKSt7__cxx1112basic_stringIcSt11char_traitsIcESaIcEE4sizeEv(ptr noundef nonnull align 8 dereferenceable(32) %5) #3
  %7 = load ptr, ptr %4, align 8, !tbaa !17
  %8 = load ptr, ptr %4, align 8, !tbaa !17
  %9 = call noundef i64 @_ZNSt11char_traitsIcE6lengthEPKc(ptr noundef %8)
  %10 = call noundef nonnull align 8 dereferenceable(32) ptr @_ZNSt7__cxx1112basic_stringIcSt11char_traitsIcESaIcEE10_M_replaceEmmPKcm(ptr noundef nonnull align 8 dereferenceable(32) %5, i64 noundef 0, i64 noundef %6, ptr noundef %7, i64 noundef %9)
  ret ptr %10
}

; Function Attrs: mustprogress uwtable
define available_externally noundef nonnull align 8 dereferenceable(32) ptr @_ZNSt7__cxx1112basic_stringIcSt11char_traitsIcESaIcEEaSEPKc(ptr noundef nonnull align 8 dereferenceable(32) %0, ptr noundef %1) #4 align 2 {
  %3 = alloca ptr, align 8
  %4 = alloca ptr, align 8
  store ptr %0, ptr %3, align 8, !tbaa !15
  store ptr %1, ptr %4, align 8, !tbaa !17
  %5 = load ptr, ptr %3, align 8
  %6 = load ptr, ptr %4, align 8, !tbaa !17
  %7 = call noundef nonnull align 8 dereferenceable(32) ptr @_ZNSt7__cxx1112basic_stringIcSt11char_traitsIcESaIcEE6assignEPKc(ptr noundef nonnull align 8 dereferenceable(32) %5, ptr noundef %6)
  ret ptr %7
}

; Function Attrs: mustprogress uwtable
define internal void @_ZN12_GLOBAL__N_113SynthEcp5Pass11clear_flagsEv(ptr noundef nonnull align 8 dereferenceable(327) %0) unnamed_addr #4 align 2 {
  %2 = alloca ptr, align 8
  store ptr %0, ptr %2, align 8, !tbaa !6
  %3 = load ptr, ptr %2, align 8
  %4 = getelementptr inbounds nuw %"struct.(anonymous namespace)::SynthEcp5Pass", ptr %3, i32 0, i32 1
  %5 = call noundef nonnull align 8 dereferenceable(32) ptr @_ZNSt7__cxx1112basic_stringIcSt11char_traitsIcESaIcEEaSEPKc(ptr noundef nonnull align 8 dereferenceable(32) %4, ptr noundef @.str.54)
  %6 = getelementptr inbounds nuw %"struct.(anonymous namespace)::SynthEcp5Pass", ptr %3, i32 0, i32 2
  %7 = call noundef nonnull align 8 dereferenceable(32) ptr @_ZNSt7__cxx1112basic_stringIcSt11char_traitsIcESaIcEEaSEPKc(ptr noundef nonnull align 8 dereferenceable(32) %6, ptr noundef @.str.55)
  %8 = getelementptr inbounds nuw %"struct.(anonymous namespace)::SynthEcp5Pass", ptr %3, i32 0, i32 3
  %9 = call noundef nonnull align 8 dereferenceable(32) ptr @_ZNSt7__cxx1112basic_stringIcSt11char_traitsIcESaIcEEaSEPKc(ptr noundef nonnull align 8 dereferenceable(32) %8, ptr noundef @.str.55)
  %10 = getelementptr inbounds nuw %"struct.(anonymous namespace)::SynthEcp5Pass", ptr %3, i32 0, i32 4
  %11 = call noundef nonnull align 8 dereferenceable(32) ptr @_ZNSt7__cxx1112basic_stringIcSt11char_traitsIcESaIcEEaSEPKc(ptr noundef nonnull align 8 dereferenceable(32) %10, ptr noundef @.str.55)
  %12 = getelementptr inbounds nuw %"struct.(anonymous namespace)::SynthEcp5Pass", ptr %3, i32 0, i32 5
  store i8 0, ptr %12, align 8, !tbaa !23
  %13 = getelementptr inbounds nuw %"struct.(anonymous namespace)::SynthEcp5Pass", ptr %3, i32 0, i32 6
  store i8 0, ptr %13, align 1, !tbaa !34
  %14 = getelementptr inbounds nuw %"struct.(anonymous namespace)::SynthEcp5Pass", ptr %3, i32 0, i32 7
  store i8 0, ptr %14, align 2, !tbaa !35
  %15 = getelementptr inbounds nuw %"struct.(anonymous namespace)::SynthEcp5Pass", ptr %3, i32 0, i32 8
  store i8 0, ptr %15, align 1, !tbaa !36
  %16 = getelementptr inbounds nuw %"struct.(anonymous namespace)::SynthEcp5Pass", ptr %3, i32 0, i32 9
  store i8 0, ptr %16, align 4, !tbaa !37
  %17 = getelementptr inbounds nuw %"struct.(anonymous namespace)::SynthEcp5Pass", ptr %3, i32 0, i32 10
  store i8 0, ptr %17, align 1, !tbaa !38
  %18 = getelementptr inbounds nuw %"struct.(anonymous namespace)::SynthEcp5Pass", ptr %3, i32 0, i32 11
  store i8 1, ptr %18, align 2, !tbaa !39
  %19 = getelementptr inbounds nuw %"struct.(anonymous namespace)::SynthEcp5Pass", ptr %3, i32 0, i32 12
  store i8 0, ptr %19, align 1, !tbaa !40
  %20 = getelementptr inbounds nuw %"struct.(anonymous namespace)::SynthEcp5Pass", ptr %3, i32 0, i32 13
  store i8 0, ptr %20, align 8, !tbaa !41
  %21 = getelementptr inbounds nuw %"struct.(anonymous namespace)::SynthEcp5Pass", ptr %3, i32 0, i32 14
  store i8 0, ptr %21, align 1, !tbaa !42
  %22 = getelementptr inbounds nuw %"struct.(anonymous namespace)::SynthEcp5Pass", ptr %3, i32 0, i32 18
  store i8 0, ptr %22, align 1, !tbaa !43
  %23 = getelementptr inbounds nuw %"struct.(anonymous namespace)::SynthEcp5Pass", ptr %3, i32 0, i32 15
  store i8 1, ptr %23, align 2, !tbaa !44
  %24 = getelementptr inbounds nuw %"struct.(anonymous namespace)::SynthEcp5Pass", ptr %3, i32 0, i32 16
  store i8 0, ptr %24, align 1, !tbaa !45
  %25 = getelementptr inbounds nuw %"struct.(anonymous namespace)::SynthEcp5Pass", ptr %3, i32 0, i32 17
  store i8 0, ptr %25, align 4, !tbaa !46
  %26 = getelementptr inbounds nuw %"struct.(anonymous namespace)::SynthEcp5Pass", ptr %3, i32 0, i32 19
  store i8 0, ptr %26, align 2, !tbaa !47
  ret void
}